target datalayout = "e-m:e-p270:32:32-p271:32:32-p272:64:64-i64:64-i128:128-f80:128-n8:16:32:64-S128"
target triple = "x86_64-pc-linux-gnu"

%"class.pbrt::Shape" = type { %"class.pbrt::TaggedPointer.10" }
%"class.pbrt::TaggedPointer.10" = type { i64 }
%"class.pbrt::Material" = type { %"class.pbrt::TaggedPointer.11" }
%"class.pbrt::TaggedPointer.11" = type { i64 }
%"class.pbrt::SimplePrimitive" = type { %"class.pbrt::Shape", %"class.pbrt::Material" }

@_ZN4pbrtL15primitiveMemoryE = internal thread_local global i64 0, align 8

; Function Attrs: mustprogress nounwind uwtable
define linkonce_odr dso_local void @_ZN4pbrt13TaggedPointerIJNS_21CoatedDiffuseMaterialENS_23CoatedConductorMaterialENS_17ConductorMaterialENS_18DielectricMaterialENS_15DiffuseMaterialENS_27DiffuseTransmissionMaterialENS_12HairMaterialENS_16MeasuredMaterialENS_18SubsurfaceMaterialENS_22ThinDielectricMaterialENS_11MixMaterialEEEC2ERKSC_(ptr noundef nonnull align 8 dereferenceable(8) %0, ptr noundef nonnull align 8 dereferenceable(8) %1) unnamed_addr #8 comdat align 2 {
  %3 = alloca ptr, align 8
  %4 = alloca ptr, align 8
  store ptr %0, ptr %3, align 8, !tbaa !147
  store ptr %1, ptr %4, align 8, !tbaa !147
  %5 = load ptr, ptr %3, align 8
  %6 = getelementptr inbounds nuw %"class.pbrt::TaggedPointer.11", ptr %5, i32 0, i32 0
  store i64 0, ptr %6, align 8, !tbaa !149
  %7 = load ptr, ptr %4, align 8, !tbaa !147
  %8 = getelementptr inbounds nuw %"class.pbrt::TaggedPointer.11", ptr %7, i32 0, i32 0
  %9 = load i64, ptr %8, align 8, !tbaa !149
  %10 = getelementptr inbounds nuw %"class.pbrt::TaggedPointer.11", ptr %5, i32 0, i32 0
  store i64 %9, ptr %10, align 8, !tbaa !149
  ret void
}

; Function Attrs: mustprogress nounwind uwtable
define linkonce_odr dso_local void @_ZN4pbrt13TaggedPointerIJNS_6SphereENS_8CylinderENS_4DiskENS_8TriangleENS_13BilinearPatchENS_5CurveEEEC2ERKS7_(ptr noundef nonnull align 8 dereferenceable(8) %0, ptr noundef nonnull align 8 dereferenceable(8) %1) unnamed_addr #8 comdat align 2 {
  %3 = alloca ptr, align 8
  %4 = alloca ptr, align 8
  store ptr %0, ptr %3, align 8, !tbaa !143
  store ptr %1, ptr %4, align 8, !tbaa !143
  %5 = load ptr, ptr %3, align 8
  %6 = getelementptr inbounds nuw %"class.pbrt::TaggedPointer.10", ptr %5, i32 0, i32 0
  store i64 0, ptr %6, align 8, !tbaa !145
  %7 = load ptr, ptr %4, align 8, !tbaa !143
  %8 = getelementptr inbounds nuw %"class.pbrt::TaggedPointer.10", ptr %7, i32 0, i32 0
  %9 = load i64, ptr %8, align 8, !tbaa !145
  %10 = getelementptr inbounds nuw %"class.pbrt::TaggedPointer.10", ptr %5, i32 0, i32 0
  store i64 %9, ptr %10, align 8, !tbaa !145
  ret void
}

; Function Attrs: inlinehint mustprogress uwtable
define linkonce_odr dso_local void @_ZN4pbrt8MaterialC2ERKS0_(ptr noundef nonnull align 8 dereferenceable(8) %0, ptr noundef nonnull align 8 dereferenceable(8) %1) unnamed_addr #5 comdat align 2 {
  %3 = alloca ptr, align 8
  %4 = alloca ptr, align 8
  store ptr %0, ptr %3, align 8, !tbaa !26
  store ptr %1, ptr %4, align 8, !tbaa !26
  %5 = load ptr, ptr %3, align 8
  %6 = load ptr, ptr %4, align 8, !tbaa !26
  call void @_ZN4pbrt13TaggedPointerIJNS_21CoatedDiffuseMaterialENS_23CoatedConductorMaterialENS_17ConductorMaterialENS_18DielectricMaterialENS_15DiffuseMaterialENS_27DiffuseTransmissionMaterialENS_12HairMaterialENS_16MeasuredMaterialENS_18SubsurfaceMaterialENS_22ThinDielectricMaterialENS_11MixMaterialEEEC2ERKSC_(ptr noundef nonnull align 8 dereferenceable(8) %5, ptr noundef nonnull align 8 dereferenceable(8) %6)
  ret void
}

; Function Attrs: inlinehint mustprogress uwtable
define linkonce_odr dso_local void @_ZN4pbrt5ShapeC2ERKS0_(ptr noundef nonnull align 8 dereferenceable(8) %0, ptr noundef nonnull align 8 dereferenceable(8) %1) unnamed_addr #5 comdat align 2 {
  %3 = alloca ptr, align 8
  %4 = alloca ptr, align 8
  store ptr %0, ptr %3, align 8, !tbaa !24
  store ptr %1, ptr %4, align 8, !tbaa !24
  %5 = load ptr, ptr %3, align 8
  %6 = load ptr, ptr %4, align 8, !tbaa !24
  call void @_ZN4pbrt13TaggedPointerIJNS_6SphereENS_8CylinderENS_4DiskENS_8TriangleENS_13BilinearPatchENS_5CurveEEEC2ERKS7_(ptr noundef nonnull align 8 dereferenceable(8) %5, ptr noundef nonnull align 8 dereferenceable(8) %6)
  ret void
}

; Function Attrs: mustprogress uwtable
define dso_local void @_ZN4pbrt15SimplePrimitiveC2ENS_5ShapeENS_8MaterialE(ptr noundef nonnull align 8 dereferenceable(16) %0, ptr noundef %1, ptr noundef %2) unnamed_addr #1 align 2 {
  %4 = alloca ptr, align 8
  %5 = alloca ptr, align 8
  %6 = alloca ptr, align 8
  store ptr %0, ptr %4, align 8, !tbaa !99
  store ptr %1, ptr %5, align 8, !tbaa !24
  store ptr %2, ptr %6, align 8, !tbaa !26
  %7 = load ptr, ptr %4, align 8
  %8 = getelementptr inbounds nuw %"class.pbrt::SimplePrimitive", ptr %7, i32 0, i32 0
  call void @_ZN4pbrt5ShapeC2ERKS0_(ptr noundef nonnull align 8 dereferenceable(8) %8, ptr noundef nonnull align 8 dereferenceable(8) %1)
  %9 = getelementptr inbounds nuw %"class.pbrt::SimplePrimitive", ptr %7, i32 0, i32 1
  call void @_ZN4pbrt8MaterialC2ERKS0_(ptr noundef nonnull align 8 dereferenceable(8) %9, ptr noundef nonnull align 8 dereferenceable(8) %2)
  %10 = call align 8 ptr @llvm.threadlocal.address.p0(ptr align 8 @_ZN4pbrtL15primitiveMemoryE)
  %11 = load i64, ptr %10, align 8, !tbaa !34
  %12 = add i64 %11, 16
  store i64 %12, ptr %10, align 8, !tbaa !34
  ret void
}