; Function Attrs: mustprogress nofree norecurse nosync nounwind willreturn memory(readwrite, inaccessiblemem: none) uwtable
define dso_local void @_ZN4pbrt15SimplePrimitiveC2ENS_5ShapeENS_8MaterialE(ptr noundef nonnull writeonly align 8 captures(none) dereferenceable(16) initializes((0, 16)) %0, ptr noundef readonly captures(none) %1, ptr noundef readonly captures(none) %2) unnamed_addr #3 align 2 {
  store i64 0, ptr %0, align 8, !tbaa !22
  %4 = load i64, ptr %1, align 8, !tbaa !22
  store i64 %4, ptr %0, align 8, !tbaa !22
  %5 = getelementptr inbounds nuw i8, ptr %0, i64 8
  store i64 0, ptr %5, align 8, !tbaa !24
  %6 = load i64, ptr %2, align 8, !tbaa !24
  store i64 %6, ptr %5, align 8, !tbaa !24
  %7 = tail call align 8 ptr @llvm.threadlocal.address.p0(ptr align 8 @_ZN4pbrtL15primitiveMemoryE)
  %8 = load i64, ptr %7, align 8, !tbaa !32
  %9 = add i64 %8, 16
  store i64 %9, ptr %7, align 8, !tbaa !32
  ret void
}